(lp0
(lp1
c__builtin__
frozenset
p2
((lp3
I77
aI79
aI50
aI19
aI53
aI60
atp4
Rp5
ag2
((lp6
I76
aI77
aI47
aI48
aI84
aI89
aI26
aI15
aI30
atp7
Rp8
ag2
((lp9
I24
aI41
aI73
atp10
Rp11
ag2
((lp12
I90
aI77
aI69
atp13
Rp14
ag2
((lp15
I68
aI9
aI42
aI80
aI53
aI23
aI36
aI4
atp16
Rp17
ag2
((lp18
I97
aI26
aI19
aI53
aI87
atp19
Rp20
aa(lp21
g2
((lp22
I96
aI1
aI6
aI43
aI15
aI63
atp23
Rp24
ag2
((lp25
I1
aI2
aI68
aI70
aI7
aI78
aI25
aI92
atp26
Rp27
ag2
((lp28
I32
aI57
aI67
aI52
aI99
atp29
Rp30
ag2
((lp31
I0
aI98
aI92
aI39
atp32
Rp33
aa(lp34
g2
((lp35
I26
atp36
Rp37
ag2
((lp38
I49
aI39
aI11
aI76
aI81
aI87
aI89
aI90
atp39
Rp40
ag2
((lp41
I64
aI41
aI32
aI53
aI87
atp42
Rp43
aa(lp44
g2
((lp45
I96
aI39
aI37
aI62
aI63
atp46
Rp47
ag2
((lp48
I84
aI17
aI92
aI70
aI48
atp49
Rp50
ag2
((lp51
I64
aI24
aI9
aI62
aI47
atp52
Rp53
ag2
((lp54
I0
aI2
aI39
aI76
aI20
aI54
aI57
atp55
Rp56
ag2
((lp57
I8
aI9
aI2
aI36
aI16
atp58
Rp59
ag2
((lp60
I38
aI8
aI47
aI83
aI87
aI15
atp61
Rp62
ag2
((lp63
I34
aI69
aI38
aI82
aI20
aI55
aI90
atp64
Rp65
ag2
((lp66
I32
aI65
aI34
aI13
aI14
aI30
atp67
Rp68
aa(lp69
g2
((lp70
I40
aI71
atp71
Rp72
ag2
((lp73
I19
aI75
aI94
aI6
aI87
atp74
Rp75
ag2
((lp76
I35
aI85
aI77
atp77
Rp78
ag2
((lp79
I96
aI17
aI3
aI93
atp80
Rp81
aa(lp82
g2
((lp83
I97
aI37
aI40
aI45
aI47
aI58
atp84
Rp85
ag2
((lp86
I76
aI13
atp87
Rp88
ag2
((lp89
I20
aI28
aI5
aI22
atp90
Rp91
ag2
((lp92
I37
aI74
aI12
aI14
aI79
aI23
atp93
Rp94
ag2
((lp95
I81
aI54
aI79
atp96
Rp97
aa(lp98
g2
((lp99
I68
aI5
aI74
aI48
aI58
aI92
aI94
atp100
Rp101
ag2
((lp102
I64
aI90
aI10
aI2
aI79
atp103
Rp104
ag2
((lp105
I88
atp106
Rp107
ag2
((lp108
I33
aI91
aI62
atp109
Rp110
aa(lp111
g2
((lp112
I64
aI97
aI98
aI1
aI12
aI48
aI20
aI87
aI91
atp113
Rp114
aa(lp115
g2
((lp116
I88
aI0
aI59
aI79
atp117
Rp118
aa(lp119
g2
((lp120
I98
aI70
aI78
aI15
aI82
aI57
aI79
aI92
atp121
Rp122
ag2
((lp123
I64
aI67
atp124
Rp125
aa(lp126
g2
((lp127
I64
aI34
aI27
aI37
aI45
aI15
aI91
aI29
atp128
Rp129
ag2
((lp130
I49
aI35
atp131
Rp132
ag2
((lp133
I32
aI97
aI36
aI90
aI27
aI30
aI31
atp134
Rp135
aa(lp136
g2
((lp137
I7
aI45
aI16
aI19
aI88
aI28
atp138
Rp139
ag2
((lp140
I65
aI68
aI75
aI93
aI55
aI29
atp141
Rp142
ag2
((lp143
I65
aI9
aI77
aI47
aI84
aI52
atp144
Rp145
ag2
((lp146
I64
aI46
atp147
Rp148
ag2
((lp149
I0
aI34
aI3
aI10
aI50
aI24
aI92
aI63
atp150
Rp151
ag2
((lp152
I65
aI6
aI47
aI16
aI22
aI55
atp153
Rp154
ag2
((lp155
I20
atp156
Rp157
aa(lp158
g2
((lp159
I97
aI3
aI52
aI14
aI60
atp160
Rp161
ag2
((lp162
I29
aI7
atp163
Rp164
ag2
((lp165
I66
aI91
aI23
atp166
Rp167
aa(lp168
g2
((lp169
I33
aI98
aI8
aI13
aI24
aI93
atp170
Rp171
ag2
((lp172
I35
aI5
aI44
aI45
aI17
aI87
aI25
aI91
atp173
Rp174
ag2
((lp175
I71
aI42
aI43
aI13
aI46
aI14
aI54
aI94
atp176
Rp177
ag2
((lp178
I0
aI47
aI82
aI35
aI39
atp179
Rp180
ag2
((lp181
I96
aI97
aI59
aI23
atp182
Rp183
ag2
((lp184
I2
aI4
aI71
aI55
aI25
aI62
atp185
Rp186
ag2
((lp187
I2
aI3
aI71
aI44
aI48
aI18
atp188
Rp189
ag2
((lp190
I0
aI42
aI76
aI45
aI22
aI27
aI10
atp191
Rp192
aa(lp193
g2
((lp194
I17
aI95
aI11
aI14
aI55
atp195
Rp196
ag2
((lp197
I25
aI30
aI63
atp198
Rp199
ag2
((lp200
I41
aI66
aI11
aI65
aI63
atp201
Rp202
aa(lp203
g2
((lp204
I99
aI69
aI9
aI81
aI52
aI92
atp205
Rp206
ag2
((lp207
I18
aI29
atp208
Rp209
ag2
((lp210
I59
atp211
Rp212
ag2
((lp213
I96
aI35
aI7
aI40
aI45
aI83
aI60
atp214
Rp215
ag2
((lp216
I89
aI82
aI67
aI69
aI5
atp217
Rp218
ag2
((lp219
I32
aI16
aI66
aI20
aI95
atp220
Rp221
ag2
((lp222
I18
aI19
aI28
aI38
aI31
atp223
Rp224
ag2
((lp225
I92
aI55
atp226
Rp227
aa(lp228
g2
((lp229
I61
atp230
Rp231
aa(lp232
g2
((lp233
I32
aI5
aI73
aI84
aI87
aI20
aI29
aI94
atp234
Rp235
ag2
((lp236
I91
atp237
Rp238
ag2
((lp239
I0
aI98
aI7
aI11
aI79
aI83
aI57
aI30
atp240
Rp241
ag2
((lp242
I72
aI97
aI87
aI17
aI31
atp243
Rp244
ag2
((lp245
I1
aI18
aI35
aI6
aI51
atp246
Rp247
aa(lp248
g2
((lp249
I42
aI55
aI21
aI39
atp250
Rp251
ag2
((lp252
I20
aI21
atp253
Rp254
ag2
((lp255
I65
aI2
aI70
aI33
aI10
aI49
aI20
aI90
aI93
atp256
Rp257
ag2
((lp258
I82
atp259
Rp260
ag2
((lp261
I2
aI67
aI75
aI77
aI50
aI84
aI91
atp262
Rp263
aa(lp264
g2
((lp265
I39
aI78
aI84
aI55
aI24
aI28
atp266
Rp267
ag2
((lp268
I65
aI97
aI7
aI72
aI76
aI13
aI14
aI84
aI46
atp269
Rp270
ag2
((lp271
I32
aI75
aI77
aI49
aI50
aI88
aI28
atp272
Rp273
ag2
((lp274
I98
aI35
aI11
aI46
aI17
aI21
aI22
aI25
atp275
Rp276
aa(lp277
g2
((lp278
I0
aI89
aI52
aI6
aI15
atp279
Rp280
ag2
((lp281
I34
aI75
aI38
aI73
aI10
aI11
aI43
aI85
atp282
Rp283
aa(lp284
g2
((lp285
I64
aI97
aI32
aI8
aI78
aI40
aI63
atp286
Rp287
aa(lp288
g2
((lp289
I72
aI94
atp290
Rp291
ag2
((lp292
I0
aI57
aI59
aI14
aI22
atp293
Rp294
ag2
((lp295
I67
aI4
aI47
aI81
aI26
aI92
atp296
Rp297
ag2
((lp298
I6
aI72
aI46
aI49
aI58
aI60
atp299
Rp300
ag2
((lp301
I0
aI97
aI45
aI50
aI87
aI61
atp302
Rp303
ag2
((lp304
I8
aI78
atp305
Rp306
ag2
((lp307
I4
aI74
aI75
aI13
aI24
aI26
aI59
aI42
atp308
Rp309
ag2
((lp310
I34
aI45
atp311
Rp312
aa(lp313
g2
((lp314
I80
aI78
atp315
Rp316
aa(lp317
g2
((lp318
I57
aI34
atp319
Rp320
ag2
((lp321
I0
aI6
aI39
aI72
aI76
aI48
aI82
aI89
atp322
Rp323
ag2
((lp324
I67
aI40
aI15
aI81
aI20
aI24
aI62
atp325
Rp326
ag2
((lp327
I29
atp328
Rp329
ag2
((lp330
I98
aI6
aI39
aI12
aI76
aI78
aI17
aI14
atp331
Rp332
ag2
((lp333
I64
aI1
aI98
aI65
aI74
aI54
aI58
aI62
atp334
Rp335
aa(lp336
g2
((lp337
I57
aI58
aI60
aI21
aI78
atp338
Rp339
aa(lp340
g2
((lp341
I4
aI7
aI71
aI77
aI50
aI31
atp342
Rp343
aa(lp344
g2
((lp345
I1
aI70
aI12
aI45
aI78
aI80
aI85
aI31
atp346
Rp347
ag2
((lp348
I25
aI61
aI11
aI77
aI87
atp349
Rp350
ag2
((lp351
I84
aI36
aI83
aI60
aI93
atp352
Rp353
ag2
((lp354
I14
aI53
aI78
atp355
Rp356
ag2
((lp357
I64
aI3
aI38
aI77
aI52
aI21
aI93
atp358
Rp359
ag2
((lp360
I44
aI55
atp361
Rp362
aa(lp363
g2
((lp364
I1
aI13
aI77
aI38
aI95
atp365
Rp366
aa(lp367
g2
((lp368
I64
aI1
aI76
aI14
aI16
aI82
aI53
aI94
atp369
Rp370
ag2
((lp371
I32
aI7
aI10
aI12
aI48
aI58
atp372
Rp373
ag2
((lp374
I52
aI93
aI38
atp375
Rp376
ag2
((lp377
I10
aI11
aI76
aI78
aI93
aI83
aI61
atp378
Rp379
ag2
((lp380
I96
aI32
aI35
aI4
aI9
aI74
aI25
aI29
atp381
Rp382
ag2
((lp383
I69
aI70
aI19
aI53
aI88
aI91
atp384
Rp385
ag2
((lp386
I33
aI2
aI69
aI65
aI29
aI90
aI58
atp387
Rp388
ag2
((lp389
I36
aI19
aI22
aI57
aI24
aI25
atp390
Rp391
aa(lp392
g2
((lp393
I81
aI95
atp394
Rp395
ag2
((lp396
I38
aI71
aI8
aI47
aI49
aI85
atp397
Rp398
ag2
((lp399
I33
aI93
aI78
aI25
atp400
Rp401
ag2
((lp402
I80
aI40
aI37
aI30
atp403
Rp404
ag2
((lp405
I56
aI36
aI18
aI20
atp406
Rp407
ag2
((lp408
I35
aI37
aI39
aI30
aI90
aI29
aI62
aI31
atp409
Rp410
ag2
((lp411
I4
aI58
aI3
aI76
atp412
Rp413
ag2
((lp414
I65
aI2
aI11
aI45
aI82
aI54
aI95
atp415
Rp416
ag2
((lp417
I57
atp418
Rp419
aa(lp420
g2
((lp421
I25
aI39
atp422
Rp423
ag2
((lp424
I97
aI98
aI6
aI85
aI87
aI89
aI58
aI95
atp425
Rp426
ag2
((lp427
I32
aI99
aI5
aI77
aI89
aI69
atp428
Rp429
ag2
((lp430
I6
aI76
aI46
aI18
aI51
aI25
aI91
aI63
atp431
Rp432
ag2
((lp433
I58
aI12
aI46
aI39
atp434
Rp435
ag2
((lp436
I6
aI10
aI82
aI85
aI59
aI28
aI95
atp437
Rp438
ag2
((lp439
I0
aI1
aI35
aI6
aI16
aI51
aI88
aI59
aI94
atp440
Rp441
aa(lp442
g2
((lp443
I33
aI7
aI8
aI41
aI79
aI86
aI88
atp444
Rp445
ag2
((lp446
I49
aI98
aI67
atp447
Rp448
ag2
((lp449
I68
aI38
aI71
aI13
aI82
aI52
atp450
Rp451
ag2
((lp452
I73
aI68
aI46
atp453
Rp454
ag2
((lp455
I72
aI18
aI8
aI50
aI90
aI91
aI93
atp456
Rp457
ag2
((lp458
I0
aI44
aI46
atp459
Rp460
aa(lp461
g2
((lp462
I4
aI37
aI41
aI76
aI84
aI23
aI27
aI92
aI29
atp463
Rp464
ag2
((lp465
I97
aI67
aI44
aI75
aI76
aI9
atp466
Rp467
ag2
((lp468
I49
aI66
aI71
aI77
aI23
atp469
Rp470
ag2
((lp471
I42
atp472
Rp473
ag2
((lp474
I1
aI2
aI35
aI66
aI82
aI85
atp475
Rp476
ag2
((lp477
I1
aI42
aI19
aI86
aI59
aI94
atp478
Rp479
ag2
((lp480
I88
aI75
aI79
atp481
Rp482
aa(lp483
g2
((lp484
I20
atp485
Rp486
ag2
((lp487
I2
aI37
aI20
aI85
aI22
aI24
aI52
aI27
atp488
Rp489
ag2
((lp490
I32
aI43
aI77
aI30
atp491
Rp492
ag2
((lp493
I24
aI0
aI26
aI86
aI39
atp494
Rp495
ag2
((lp496
I64
aI50
aI84
aI22
aI87
atp497
Rp498
ag2
((lp499
I25
aI49
aI29
aI46
aI7
atp500
Rp501
ag2
((lp502
I64
aI98
aI68
aI5
aI6
aI43
aI52
aI87
aI89
atp503
Rp504
ag2
((lp505
I64
aI98
aI76
aI13
aI16
aI88
aI26
aI29
aI63
atp506
Rp507
ag2
((lp508
I72
aI20
aI42
aI52
aI71
atp509
Rp510
aa(lp511
g2
((lp512
I57
aI71
aI76
aI39
atp513
Rp514
ag2
((lp515
I32
aI46
aI79
aI82
aI83
aI85
aI86
aI57
aI61
atp516
Rp517
ag2
((lp518
I65
aI14
aI49
aI85
aI54
aI62
atp519
Rp520
ag2
((lp521
I96
aI33
aI76
aI45
aI14
aI58
aI91
aI90
atp522
Rp523
ag2
((lp524
I49
aI10
aI63
aI15
atp525
Rp526
aa(lp527
g2
((lp528
I36
aI18
aI60
aI46
aI39
atp529
Rp530
ag2
((lp531
I23
atp532
Rp533
ag2
((lp534
I1
aI34
aI16
aI54
aI92
aI30
aI63
atp535
Rp536
ag2
((lp537
I49
aI43
aI92
atp538
Rp539
ag2
((lp540
I98
aI68
aI69
aI7
aI73
aI46
aI48
aI19
aI59
atp541
Rp542
ag2
((lp543
I69
aI39
aI8
aI9
aI81
aI82
aI24
atp544
Rp545
aa(lp546
g2
((lp547
I37
aI70
aI41
aI58
aI55
aI6
aI29
aI5
atp548
Rp549
aa(lp550
g2
((lp551
I33
aI37
aI81
aI73
aI12
aI49
aI51
aI20
atp552
Rp553
ag2
((lp554
I11
aI13
atp555
Rp556
ag2
((lp557
I84
atp558
Rp559
ag2
((lp560
I19
aI28
aI71
atp561
Rp562
ag2
((lp563
I58
aI46
aI85
aI30
atp564
Rp565
aa(lp566
g2
((lp567
I32
aI36
aI37
aI70
aI82
aI54
aI25
aI27
aI94
atp568
Rp569
ag2
((lp570
I97
aI6
aI42
aI19
aI22
aI56
aI91
aI10
atp571
Rp572
ag2
((lp573
I92
aI35
aI4
aI30
aI23
atp574
Rp575
ag2
((lp576
I3
aI44
aI80
aI21
aI22
aI63
atp577
Rp578
ag2
((lp579
I0
aI43
aI74
aI83
atp580
Rp581
ag2
((lp582
I48
aI60
atp583
Rp584
ag2
((lp585
I72
atp586
Rp587
aa(lp588
g2
((lp589
I0
aI76
aI13
aI85
aI29
aI30
atp590
Rp591
ag2
((lp592
I78
atp593
Rp594
aa(lp595
g2
((lp596
I19
aI22
aI71
atp597
Rp598
ag2
((lp599
I5
aI75
aI13
aI14
aI77
aI85
atp600
Rp601
ag2
((lp602
I96
aI1
aI66
aI8
aI76
aI80
aI17
aI22
atp603
Rp604
ag2
((lp605
I65
aI19
aI13
aI62
aI53
atp606
Rp607
ag2
((lp608
I73
atp609
Rp610
ag2
((lp611
I17
aI20
aI85
aI61
atp612
Rp613
ag2
((lp614
I16
aI97
aI66
aI57
atp615
Rp616
ag2
((lp617
I48
aI17
aI42
aI20
aI49
atp618
Rp619
ag2
((lp620
I72
aI12
aI48
aI49
aI19
aI86
atp621
Rp622
aa(lp623
g2
((lp624
I71
aI85
aI55
atp625
Rp626
ag2
((lp627
I11
aI43
aI34
aI99
aI71
atp628
Rp629
ag2
((lp630
I41
aI65
aI71
atp631
Rp632
ag2
((lp633
I35
aI8
aI9
aI84
aI56
aI25
aI91
aI93
atp634
Rp635
ag2
((lp636
I66
aI68
aI75
aI2
aI92
aI61
aI62
aI31
atp637
Rp638
aa(lp639
g2
((lp640
I27
atp641
Rp642
ag2
((lp643
I24
aI65
aI37
aI55
atp644
Rp645
ag2
((lp646
I96
aI74
aI20
aI66
aI69
atp647
Rp648
ag2
((lp649
I2
atp650
Rp651
aa(lp652
g2
((lp653
I16
aI89
aI90
aI59
aI73
atp654
Rp655
ag2
((lp656
I66
aI35
aI20
aI53
atp657
Rp658
ag2
((lp659
I0
aI65
aI32
aI12
aI76
aI16
aI58
aI29
atp660
Rp661
ag2
((lp662
I80
aI9
aI87
aI3
aI55
atp663
Rp664
aa(lp665
g2
((lp666
I64
aI27
aI68
aI13
aI31
atp667
Rp668
ag2
((lp669
I34
aI35
aI4
aI42
aI48
aI24
aI57
atp670
Rp671
ag2
((lp672
I18
atp673
Rp674
ag2
((lp675
I0
aI48
aI5
atp676
Rp677
ag2
((lp678
I1
aI67
aI39
aI75
aI79
aI60
aI30
aI63
atp679
Rp680
ag2
((lp681
I64
aI81
aI10
aI92
aI25
atp682
Rp683
ag2
((lp684
I81
aI50
aI51
aI36
atp685
Rp686
aa(lp687
g2
((lp688
I80
aI89
aI82
aI62
aI41
atp689
Rp690
ag2
((lp691
I48
aI18
aI59
aI53
aI29
atp692
Rp693
ag2
((lp694
I98
aI8
aI41
aI14
aI15
aI21
atp695
Rp696
ag2
((lp697
I34
aI3
atp698
Rp699
ag2
((lp700
I67
aI5
aI15
aI86
aI26
aI92
atp701
Rp702
ag2
((lp703
I58
aI4
atp704
Rp705
aa(lp706
g2
((lp707
I48
aI65
aI50
aI66
atp708
Rp709
aa(lp710
g2
((lp711
I4
aI8
aI44
aI45
aI46
aI20
aI56
aI59
aI29
atp712
Rp713
ag2
((lp714
I65
aI6
aI12
aI84
aI55
aI27
aI28
atp715
Rp716
ag2
((lp717
I36
aI45
aI79
atp718
Rp719
ag2
((lp720
I5
aI6
aI9
aI21
aI41
aI91
aI94
aI31
atp721
Rp722
ag2
((lp723
I87
atp724
Rp725
ag2
((lp726
I21
atp727
Rp728
ag2
((lp729
I96
aI41
aI98
aI13
aI17
atp730
Rp731
ag2
((lp732
I89
aI66
aI74
aI53
aI7
atp733
Rp734
ag2
((lp735
I24
aI81
aI91
aI21
aI14
atp736
Rp737
aa(lp738
g2
((lp739
I65
aI99
aI73
aI74
aI44
aI80
atp740
Rp741
ag2
((lp742
I81
aI74
aI21
aI38
aI89
atp743
Rp744
ag2
((lp745
I80
aI36
aI74
aI99
aI12
atp746
Rp747
ag2
((lp748
I98
aI73
aI74
aI11
aI60
aI61
atp749
Rp750
ag2
((lp751
I65
aI39
aI42
aI7
aI77
aI85
atp752
Rp753
ag2
((lp754
I81
aI35
aI12
aI77
atp755
Rp756
aa.