(ifield
Field
p0
(dp1
S'dim'
p2
(I6
I6
tp3
sS'free_cells'
p4
(lp5
(I0
I1
tp6
a(I0
I2
tp7
a(I1
I1
tp8
a(I1
I3
tp9
a(I2
I1
tp10
a(I2
I2
tp11
a(I2
I3
tp12
a(I3
I0
tp13
a(I3
I2
tp14
a(I3
I3
tp15
a(I3
I4
tp16
a(I3
I5
tp17
a(I4
I0
tp18
a(I4
I1
tp19
a(I4
I2
tp20
a(I4
I3
tp21
a(I5
I4
tp22
a(I5
I5
tp23
asS'bricks'
p24
(lp25
(I5
I1
tp26
a(I2
I5
tp27
a(I1
I2
tp28
a(I4
I4
tp29
a(I1
I5
tp30
a(I5
I0
tp31
a(I0
I0
tp32
a(I0
I4
tp33
a(I1
I4
tp34
a(I0
I5
tp35
a(I5
I2
tp36
a(I3
I1
tp37
a(I2
I4
tp38
asS'_finish'
p39
(I1
I0
tp40
sS'_time'
p41
I22
sS'_blocker_cells'
p42
(lp43
g26
ag27
ag28
ag29
ag30
ag31
ag32
ag33
ag34
ag35
ag36
ag37
ag38
asS'_backup_dict'
p44
(dp45
g2
g3
sS'stars'
p46
(lp47
sg24
(lp48
sg39
g40
sg41
Nsg42
(lp49
sg44
Nsg4
(lp50
(I0
I0
tp51
ag6
ag7
a(I0
I3
tp52
a(I0
I4
tp53
a(I0
I5
tp54
ag8
a(I1
I2
tp55
ag9
a(I1
I4
tp56
a(I1
I5
tp57
a(I2
I0
tp58
ag10
ag11
ag12
a(I2
I4
tp59
a(I2
I5
tp60
ag13
a(I3
I1
tp61
ag14
ag15
ag16
ag17
ag18
ag19
ag20
ag21
a(I4
I4
tp62
a(I5
I0
tp63
a(I5
I1
tp64
a(I5
I2
tp65
a(I5
I3
tp66
ag22
ag23
asS'_danger_cells'
p67
(lp68
sS'_start'
p69
(I4
I5
tp70
sS'_danger_objects'
p71
(lp72
ssg46
(lp73
(I5
I3
tp74
a(I2
I0
tp75
a(I0
I3
tp76
asg67
(lp77
sg69
g70
sg71
(lp78
(idanger
Danger
p79
(dp80
S'dirs'
p81
NsS'danger_cells'
p82
(lp83
sS'on_period'
p84
I1
sS'off_period'
p85
I3
sS'coord'
p86
(I1
I3
tp87
sS'offset'
p88
I1
sS'type'
p89
I5
sba(idanger
Danger
p90
(dp91
g81
Nsg82
(lp92
sg84
I2
sg85
I3
sg86
(I2
I1
tp93
sg88
I2
sg89
I5
sba(idanger
Danger
p94
(dp95
g81
Nsg82
(lp96
sg84
I2
sg85
I3
sg86
(I3
I0
tp97
sg88
I4
sg89
I5
sba(idanger
Danger
p98
(dp99
g81
Nsg82
(lp100
sg84
I2
sg85
I3
sg86
(I3
I2
tp101
sg88
I0
sg89
I5
sba(idanger
Danger
p102
(dp103
g81
Nsg82
(lp104
sg84
I1
sg85
I2
sg86
(I1
I1
tp105
sg88
I2
sg89
I5
sba(idanger
Danger
p106
(dp107
g81
Nsg82
(lp108
sg84
I3
sg85
I2
sg86
(I3
I3
tp109
sg88
I4
sg89
I5
sbasb.