ccopy_reg
_reconstructor
p0
(cfield
Field
p1
c__builtin__
object
p2
Ntp3
Rp4
(dp5
S'dim'
p6
(I6
I6
tp7
sS'free_cells'
p8
(lp9
(I0
I2
tp10
a(I0
I3
tp11
a(I1
I4
tp12
a(I2
I0
tp13
a(I2
I1
tp14
a(I2
I3
tp15
a(I2
I4
tp16
a(I3
I0
tp17
a(I3
I2
tp18
a(I3
I3
tp19
a(I3
I4
tp20
a(I4
I0
tp21
a(I4
I1
tp22
a(I4
I4
tp23
a(I5
I2
tp24
a(I5
I3
tp25
a(I5
I4
tp26
asS'bricks'
p27
(lp28
(I1
I3
tp29
a(I2
I5
tp30
a(I1
I5
tp31
a(I5
I0
tp32
a(I1
I1
tp33
a(I0
I0
tp34
a(I4
I5
tp35
a(I5
I5
tp36
a(I0
I5
tp37
a(I1
I0
tp38
a(I3
I5
tp39
a(I0
I1
tp40
a(I3
I1
tp41
a(I4
I3
tp42
asS'_finish'
p43
(I5
I1
tp44
sS'_time'
p45
I20
sS'_blocker_cells'
p46
(lp47
g29
ag30
ag31
ag32
ag33
ag34
ag35
ag36
ag37
ag38
ag39
ag40
ag41
ag42
asS'_backup_dict'
p48
(dp49
g6
g7
sS'stars'
p50
(lp51
sg27
(lp52
sg43
g44
sg45
Nsg46
(lp53
sg48
Nsg8
(lp54
(I0
I0
tp55
a(I0
I1
tp56
ag10
ag11
a(I0
I5
tp57
a(I1
I0
tp58
a(I1
I1
tp59
a(I1
I2
tp60
a(I1
I3
tp61
ag12
a(I1
I5
tp62
ag13
ag14
a(I2
I2
tp63
ag15
ag16
a(I2
I5
tp64
ag17
a(I3
I1
tp65
ag18
ag19
ag20
a(I3
I5
tp66
ag21
ag22
a(I4
I2
tp67
a(I4
I3
tp68
ag23
a(I4
I5
tp69
a(I5
I0
tp70
ag24
ag25
ag26
a(I5
I5
tp71
asS'_danger_cells'
p72
(lp73
sS'_start'
p74
(I0
I4
tp75
sS'_danger_objects'
p76
(lp77
ssg50
(lp78
(I4
I2
tp79
a(I2
I2
tp80
a(I1
I2
tp81
asg72
(lp82
sg74
g75
sg76
(lp83
(idanger
Danger
p84
(dp85
S'dirs'
p86
NsS'danger_cells'
p87
(lp88
sS'on_period'
p89
I1
sS'off_period'
p90
I2
sS'coord'
p91
(I3
I2
tp92
sS'offset'
p93
I0
sS'type'
p94
I5
sba(idanger
Danger
p95
(dp96
g86
Nsg87
(lp97
sg89
I3
sg90
I3
sg91
(I4
I4
tp98
sg93
I5
sg94
I5
sba(idanger
Danger
p99
(dp100
g86
Nsg87
(lp101
sg89
I3
sg90
I3
sg91
(I3
I4
tp102
sg93
I3
sg94
I5
sba(idanger
Danger
p103
(dp104
g86
Nsg87
(lp105
sg89
I3
sg90
I3
sg91
(I5
I2
tp106
sg93
I5
sg94
I5
sba(idanger
Danger
p107
(dp108
g86
Nsg87
(lp109
sg89
I3
sg90
I1
sg91
(I3
I0
tp110
sg93
I3
sg94
I5
sba(idanger
Danger
p111
(dp112
g86
Nsg87
(lp113
sg89
I2
sg90
I2
sg91
(I3
I3
tp114
sg93
I3
sg94
I5
sbasb.