ccopy_reg
_reconstructor
p0
(cfield
Field
p1
c__builtin__
object
p2
Ntp3
Rp4
(dp5
S'dim'
p6
(I6
I6
tp7
sS'stars'
p8
(lp9
(I2
I2
tp10
a(I3
I2
tp11
a(I5
I2
tp12
asS'bricks'
p13
(lp14
(I1
I3
tp15
a(I3
I0
tp16
a(I5
I4
tp17
a(I4
I0
tp18
a(I1
I5
tp19
a(I5
I0
tp20
a(I1
I1
tp21
a(I5
I5
tp22
a(I0
I5
tp23
a(I4
I2
tp24
a(I3
I4
tp25
asS'_finish'
p26
(I1
I0
tp27
sS'_time'
p28
I20
sS'_blocker_cells'
p29
(lp30
g15
ag16
ag17
ag18
ag19
ag20
ag21
ag22
ag23
ag24
ag25
asS'_backup_dict'
p31
(dp32
g6
g7
sS'free_cells'
p33
(lp34
(I0
I0
tp35
a(I0
I1
tp36
a(I0
I2
tp37
a(I0
I3
tp38
a(I0
I4
tp39
a(I0
I5
tp40
a(I1
I1
tp41
a(I1
I2
tp42
a(I1
I3
tp43
a(I1
I4
tp44
a(I1
I5
tp45
a(I2
I0
tp46
a(I2
I1
tp47
a(I2
I2
tp48
a(I2
I3
tp49
a(I2
I4
tp50
a(I2
I5
tp51
a(I3
I0
tp52
a(I3
I1
tp53
a(I3
I2
tp54
a(I3
I3
tp55
a(I3
I4
tp56
a(I3
I5
tp57
a(I4
I0
tp58
a(I4
I1
tp59
a(I4
I2
tp60
a(I4
I3
tp61
a(I4
I4
tp62
a(I5
I0
tp63
a(I5
I1
tp64
a(I5
I2
tp65
a(I5
I3
tp66
a(I5
I4
tp67
a(I5
I5
tp68
asg13
(lp69
sg26
g27
sg28
Nsg29
(lp70
sg31
Nsg8
(lp71
sS'_danger_cells'
p72
(lp73
sS'_start'
p74
(I4
I5
tp75
sS'_danger_objects'
p76
(lp77
ssg33
(lp78
g35
ag36
ag37
ag38
ag39
ag42
ag44
ag46
ag47
ag49
ag50
ag51
ag53
ag55
ag57
ag59
ag61
ag62
ag64
ag66
asg72
(lp79
sg74
g75
sg76
(lp80
(idanger
Danger
p81
(dp82
S'dirs'
p83
NsS'danger_cells'
p84
(lp85
sS'on_period'
p86
I3
sS'off_period'
p87
I3
sS'coord'
p88
(I1
I4
tp89
sS'offset'
p90
I2
sS'type'
p91
I5
sba(idanger
Danger
p92
(dp93
g83
Nsg84
(lp94
sg86
I1
sg87
I1
sg88
(I1
I2
tp95
sg90
I0
sg91
I5
sba(idanger
Danger
p96
(dp97
g83
Nsg84
(lp98
sg86
I1
sg87
I2
sg88
(I2
I3
tp99
sg90
I0
sg91
I5
sba(idanger
Danger
p100
(dp101
g83
Nsg84
(lp102
sg86
I2
sg87
I3
sg88
(I3
I1
tp103
sg90
I1
sg91
I5
sba(idanger
Danger
p104
(dp105
g83
Nsg84
(lp106
sg86
I3
sg87
I3
sg88
(I3
I3
tp107
sg90
I2
sg91
I5
sba(idanger
Danger
p108
(dp109
g83
Nsg84
(lp110
sg86
I3
sg87
I2
sg88
(I4
I4
tp111
sg90
I4
sg91
I5
sbasb.